target datalayout = "e-m:e-p270:32:32-p271:32:32-p272:64:64-i64:64-i128:128-f80:128-n8:16:32:64-S128"
target triple = "x86_64-unknown-linux-gnu"

%"class.icu_75::LocaleMatcher" = type { ptr, ptr, i32, i32, i32, i32, ptr, ptr, i32, ptr, ptr, ptr, i32, ptr, ptr }
%"struct.icu_75::LSR" = type <{ ptr, ptr, ptr, ptr, i32, i32, i32, [4 x i8] }>

; Function Attrs: mustprogress nounwind uwtable
define linkonce_odr void @_ZN6icu_753LSRD2Ev(ptr noundef nonnull align 8 dereferenceable(48) %this) unnamed_addr #0 comdat align 2 personality ptr @__gxx_personality_v0 {
entry:
  %this.addr = alloca ptr, align 8
  store ptr %this, ptr %this.addr, align 8
  %this1 = load ptr, ptr %this.addr, align 8
  %owned = getelementptr inbounds %"struct.icu_75::LSR", ptr %this1, i32 0, i32 3
  %0 = load ptr, ptr %owned, align 8
  %cmp = icmp ne ptr %0, null
  br i1 %cmp, label %if.then, label %if.end

if.then:                                          ; preds = %entry
  invoke void @_ZN6icu_753LSR11deleteOwnedEv(ptr noundef nonnull align 8 dereferenceable(48) %this1)
          to label %invoke.cont unwind label %terminate.lpad

invoke.cont:                                      ; preds = %if.then
  br label %if.end

if.end:                                           ; preds = %invoke.cont, %entry
  ret void

terminate.lpad:                                   ; preds = %if.then
  %1 = landingpad { ptr, i32 }
          catch ptr null
  %2 = extractvalue { ptr, i32 } %1, 0
  call void @__clang_call_terminate(ptr %2) #13
  unreachable
}

; Function Attrs: mustprogress nounwind uwtable
define void @_ZN6icu_7513LocaleMatcherD2Ev(ptr noundef nonnull align 8 dereferenceable(104) %this) unnamed_addr #0 align 2 personality ptr @__gxx_personality_v0 {
entry:
  %this.addr = alloca ptr, align 8
  %i = alloca i32, align 4
  store ptr %this, ptr %this.addr, align 8
  %this1 = load ptr, ptr %this.addr, align 8
  store i32 0, ptr %i, align 4
  br label %for.cond

for.cond:                                         ; preds = %for.inc, %entry
  %0 = load i32, ptr %i, align 4
  %supportedLocalesLength = getelementptr inbounds %"class.icu_75::LocaleMatcher", ptr %this1, i32 0, i32 8
  %1 = load i32, ptr %supportedLocalesLength, align 8
  %cmp = icmp slt i32 %0, %1
  br i1 %cmp, label %for.body, label %for.end

for.body:                                         ; preds = %for.cond
  %supportedLocales = getelementptr inbounds %"class.icu_75::LocaleMatcher", ptr %this1, i32 0, i32 6
  %2 = load ptr, ptr %supportedLocales, align 8
  %3 = load i32, ptr %i, align 4
  %idxprom = sext i32 %3 to i64
  %arrayidx = getelementptr inbounds ptr, ptr %2, i64 %idxprom
  %4 = load ptr, ptr %arrayidx, align 8
  %isnull = icmp eq ptr %4, null
  br i1 %isnull, label %delete.end, label %delete.notnull

delete.notnull:                                   ; preds = %for.body
  %vtable = load ptr, ptr %4, align 8
  %vfn = getelementptr inbounds ptr, ptr %vtable, i64 1
  %5 = load ptr, ptr %vfn, align 8
  call void %5(ptr noundef nonnull align 8 dereferenceable(217) %4) #11
  br label %delete.end

delete.end:                                       ; preds = %delete.notnull, %for.body
  br label %for.inc

for.inc:                                          ; preds = %delete.end
  %6 = load i32, ptr %i, align 4
  %inc = add nsw i32 %6, 1
  store i32 %inc, ptr %i, align 4
  br label %for.cond, !llvm.loop !11

for.end:                                          ; preds = %for.cond
  %supportedLocales2 = getelementptr inbounds %"class.icu_75::LocaleMatcher", ptr %this1, i32 0, i32 6
  %7 = load ptr, ptr %supportedLocales2, align 8
  invoke void @uprv_free_75(ptr noundef %7)
          to label %invoke.cont unwind label %terminate.lpad

invoke.cont:                                      ; preds = %for.end
  %lsrs = getelementptr inbounds %"class.icu_75::LocaleMatcher", ptr %this1, i32 0, i32 7
  %8 = load ptr, ptr %lsrs, align 8
  %isnull3 = icmp eq ptr %8, null
  br i1 %isnull3, label %delete.end7, label %delete.notnull4

delete.notnull4:                                  ; preds = %invoke.cont
  %9 = getelementptr inbounds i8, ptr %8, i64 -8
  %10 = load i64, ptr %9, align 8
  %delete.end5 = getelementptr inbounds %"struct.icu_75::LSR", ptr %8, i64 %10
  %arraydestroy.isempty = icmp eq ptr %8, %delete.end5
  br i1 %arraydestroy.isempty, label %arraydestroy.done6, label %arraydestroy.body

arraydestroy.body:                                ; preds = %arraydestroy.body, %delete.notnull4
  %arraydestroy.elementPast = phi ptr [ %delete.end5, %delete.notnull4 ], [ %arraydestroy.element, %arraydestroy.body ]
  %arraydestroy.element = getelementptr inbounds %"struct.icu_75::LSR", ptr %arraydestroy.elementPast, i64 -1
  call void @_ZN6icu_753LSRD2Ev(ptr noundef nonnull align 8 dereferenceable(48) %arraydestroy.element) #11
  %arraydestroy.done = icmp eq ptr %arraydestroy.element, %8
  br i1 %arraydestroy.done, label %arraydestroy.done6, label %arraydestroy.body

arraydestroy.done6:                               ; preds = %arraydestroy.body, %delete.notnull4
  call void @_ZN6icu_757UMemorydaEPv(ptr noundef %9) #11
  br label %delete.end7

delete.end7:                                      ; preds = %arraydestroy.done6, %invoke.cont
  %supportedLsrToIndex = getelementptr inbounds %"class.icu_75::LocaleMatcher", ptr %this1, i32 0, i32 9
  %11 = load ptr, ptr %supportedLsrToIndex, align 8
  invoke void @uhash_close_75(ptr noundef %11)
          to label %invoke.cont8 unwind label %terminate.lpad

invoke.cont8:                                     ; preds = %delete.end7
  %supportedLSRs = getelementptr inbounds %"class.icu_75::LocaleMatcher", ptr %this1, i32 0, i32 10
  %12 = load ptr, ptr %supportedLSRs, align 8
  invoke void @uprv_free_75(ptr noundef %12)
          to label %invoke.cont9 unwind label %terminate.lpad

invoke.cont9:                                     ; preds = %invoke.cont8
  %supportedIndexes = getelementptr inbounds %"class.icu_75::LocaleMatcher", ptr %this1, i32 0, i32 11
  %13 = load ptr, ptr %supportedIndexes, align 8
  invoke void @uprv_free_75(ptr noundef %13)
          to label %invoke.cont10 unwind label %terminate.lpad

invoke.cont10:                                    ; preds = %invoke.cont9
  %ownedDefaultLocale = getelementptr inbounds %"class.icu_75::LocaleMatcher", ptr %this1, i32 0, i32 13
  %14 = load ptr, ptr %ownedDefaultLocale, align 8
  %isnull11 = icmp eq ptr %14, null
  br i1 %isnull11, label %delete.end15, label %delete.notnull12

delete.notnull12:                                 ; preds = %invoke.cont10
  %vtable13 = load ptr, ptr %14, align 8
  %vfn14 = getelementptr inbounds ptr, ptr %vtable13, i64 1
  %15 = load ptr, ptr %vfn14, align 8
  call void %15(ptr noundef nonnull align 8 dereferenceable(217) %14) #11
  br label %delete.end15

delete.end15:                                     ; preds = %delete.notnull12, %invoke.cont10
  ret void

terminate.lpad:                                   ; preds = %invoke.cont9, %invoke.cont8, %delete.end7, %for.end
  %16 = landingpad { ptr, i32 }
          catch ptr null
  %17 = extractvalue { ptr, i32 } %16, 0
  call void @__clang_call_terminate(ptr %17) #13
  unreachable
}