; Function Attrs: mustprogress nounwind uwtable
define void @_ZN6icu_7513LocaleMatcherD2Ev(ptr nocapture noundef nonnull readonly align 8 dereferenceable(104) %this) unnamed_addr #1 align 2 personality ptr @__gxx_personality_v0 {
entry:
  %supportedLocalesLength = getelementptr inbounds i8, ptr %this, i64 48
  %0 = load i32, ptr %supportedLocalesLength, align 8
  %cmp5 = icmp sgt i32 %0, 0
  br i1 %cmp5, label %for.body.lr.ph, label %for.end

for.body.lr.ph:                                   ; preds = %entry
  %supportedLocales = getelementptr inbounds i8, ptr %this, i64 32
  br label %for.body

for.body:                                         ; preds = %for.body.lr.ph, %for.inc
  %1 = phi i32 [ %0, %for.body.lr.ph ], [ %5, %for.inc ]
  %indvars.iv = phi i64 [ 0, %for.body.lr.ph ], [ %indvars.iv.next, %for.inc ]
  %2 = load ptr, ptr %supportedLocales, align 8
  %arrayidx = getelementptr inbounds ptr, ptr %2, i64 %indvars.iv
  %3 = load ptr, ptr %arrayidx, align 8
  %isnull = icmp eq ptr %3, null
  br i1 %isnull, label %for.inc, label %delete.notnull

delete.notnull:                                   ; preds = %for.body
  %vtable = load ptr, ptr %3, align 8
  %vfn = getelementptr inbounds i8, ptr %vtable, i64 8
  %4 = load ptr, ptr %vfn, align 8
  tail call void %4(ptr noundef nonnull align 8 dereferenceable(217) %3) #15
  %.pre = load i32, ptr %supportedLocalesLength, align 8
  br label %for.inc

for.inc:                                          ; preds = %for.body, %delete.notnull
  %5 = phi i32 [ %1, %for.body ], [ %.pre, %delete.notnull ]
  %indvars.iv.next = add nuw nsw i64 %indvars.iv, 1
  %6 = sext i32 %5 to i64
  %cmp = icmp slt i64 %indvars.iv.next, %6
  br i1 %cmp, label %for.body, label %for.end, !llvm.loop !17

for.end:                                          ; preds = %for.inc, %entry
  %supportedLocales2 = getelementptr inbounds i8, ptr %this, i64 32
  %7 = load ptr, ptr %supportedLocales2, align 8
  invoke void @uprv_free_75(ptr noundef %7)
          to label %invoke.cont unwind label %terminate.lpad

invoke.cont:                                      ; preds = %for.end
  %lsrs = getelementptr inbounds i8, ptr %this, i64 40
  %8 = load ptr, ptr %lsrs, align 8
  %isnull3 = icmp eq ptr %8, null
  br i1 %isnull3, label %delete.end7, label %delete.notnull4

delete.notnull4:                                  ; preds = %invoke.cont
  %9 = getelementptr inbounds i8, ptr %8, i64 -8
  %10 = load i64, ptr %9, align 8
  %arraydestroy.isempty = icmp eq i64 %10, 0
  br i1 %arraydestroy.isempty, label %arraydestroy.done6, label %arraydestroy.body.preheader

arraydestroy.body.preheader:                      ; preds = %delete.notnull4
  %delete.end5 = getelementptr inbounds %"struct.icu_75::LSR", ptr %8, i64 %10
  br label %arraydestroy.body

arraydestroy.body:                                ; preds = %arraydestroy.body.preheader, %_ZN6icu_753LSRD2Ev.exit
  %arraydestroy.elementPast = phi ptr [ %arraydestroy.element, %_ZN6icu_753LSRD2Ev.exit ], [ %delete.end5, %arraydestroy.body.preheader ]
  %arraydestroy.element = getelementptr inbounds i8, ptr %arraydestroy.elementPast, i64 -48
  %owned.i = getelementptr inbounds i8, ptr %arraydestroy.elementPast, i64 -24
  %11 = load ptr, ptr %owned.i, align 8
  %cmp.not.i = icmp eq ptr %11, null
  br i1 %cmp.not.i, label %_ZN6icu_753LSRD2Ev.exit, label %if.then.i

if.then.i:                                        ; preds = %arraydestroy.body
  invoke void @_ZN6icu_753LSR11deleteOwnedEv(ptr noundef nonnull align 8 dereferenceable(48) %arraydestroy.element)
          to label %_ZN6icu_753LSRD2Ev.exit unwind label %terminate.lpad.i

terminate.lpad.i:                                 ; preds = %if.then.i
  %12 = landingpad { ptr, i32 }
          catch ptr null
  %13 = extractvalue { ptr, i32 } %12, 0
  tail call void @__clang_call_terminate(ptr %13) #16
  unreachable

_ZN6icu_753LSRD2Ev.exit:                          ; preds = %arraydestroy.body, %if.then.i
  %arraydestroy.done = icmp eq ptr %arraydestroy.element, %8
  br i1 %arraydestroy.done, label %arraydestroy.done6, label %arraydestroy.body

arraydestroy.done6:                               ; preds = %_ZN6icu_753LSRD2Ev.exit, %delete.notnull4
  tail call void @_ZN6icu_757UMemorydaEPv(ptr noundef nonnull %9) #15
  br label %delete.end7

delete.end7:                                      ; preds = %arraydestroy.done6, %invoke.cont
  %supportedLsrToIndex = getelementptr inbounds i8, ptr %this, i64 56
  %14 = load ptr, ptr %supportedLsrToIndex, align 8
  invoke void @uhash_close_75(ptr noundef %14)
          to label %invoke.cont8 unwind label %terminate.lpad

invoke.cont8:                                     ; preds = %delete.end7
  %supportedLSRs = getelementptr inbounds i8, ptr %this, i64 64
  %15 = load ptr, ptr %supportedLSRs, align 8
  invoke void @uprv_free_75(ptr noundef %15)
          to label %invoke.cont9 unwind label %terminate.lpad

invoke.cont9:                                     ; preds = %invoke.cont8
  %supportedIndexes = getelementptr inbounds i8, ptr %this, i64 72
  %16 = load ptr, ptr %supportedIndexes, align 8
  invoke void @uprv_free_75(ptr noundef %16)
          to label %invoke.cont10 unwind label %terminate.lpad

invoke.cont10:                                    ; preds = %invoke.cont9
  %ownedDefaultLocale = getelementptr inbounds i8, ptr %this, i64 88
  %17 = load ptr, ptr %ownedDefaultLocale, align 8
  %isnull11 = icmp eq ptr %17, null
  br i1 %isnull11, label %delete.end15, label %delete.notnull12

delete.notnull12:                                 ; preds = %invoke.cont10
  %vtable13 = load ptr, ptr %17, align 8
  %vfn14 = getelementptr inbounds i8, ptr %vtable13, i64 8
  %18 = load ptr, ptr %vfn14, align 8
  tail call void %18(ptr noundef nonnull align 8 dereferenceable(217) %17) #15
  br label %delete.end15

delete.end15:                                     ; preds = %delete.notnull12, %invoke.cont10
  ret void

terminate.lpad:                                   ; preds = %invoke.cont9, %invoke.cont8, %delete.end7, %for.end
  %19 = landingpad { ptr, i32 }
          catch ptr null
  %20 = extractvalue { ptr, i32 } %19, 0
  tail call void @__clang_call_terminate(ptr %20) #16
  unreachable
}